target datalayout = "e-m:e-p270:32:32-p271:32:32-p272:64:64-i64:64-i128:128-f80:128-n8:16:32:64-S128"
target triple = "x86_64-pc-linux-gnu"

%"class.datalog::mk_synchronize" = type { %"class.datalog::rule_transformer::plugin", ptr, ptr, ptr, %class.scoped_ptr, %class.scoped_ptr.0, %class.map }
%"class.datalog::rule_transformer::plugin" = type { ptr, i32, i8, ptr }
%class.scoped_ptr = type { ptr }
%class.scoped_ptr.0 = type { ptr }
%class.map = type { %class.table2map }
%class.table2map = type { %class.core_hashtable }
%class.core_hashtable = type <{ ptr, i32, i32, i32, [4 x i8] }>
%class.obj_hashtable = type { %class.core_hashtable.base.12, [4 x i8] }
%class.core_hashtable.base.12 = type <{ ptr, i32, i32, i32 }>
%class.ptr_vector.4 = type { %class.vector.5 }
%class.vector.5 = type { ptr }
%class.expr_sparse_mark = type { %class.obj_hashtable }
%class.ptr_vector.40 = type { %class.vector.41 }
%class.vector.41 = type { ptr }
%class.obj_hashtable.68 = type { %class.core_hashtable.base.72, [4 x i8] }
%class.core_hashtable.base.72 = type <{ ptr, i32, i32, i32 }>
%"class.datalog::rule_set" = type { ptr, ptr, %class.ref_vector.79, %class.obj_map.82, %"class.datalog::rule_dependencies", %class.scoped_ptr.0, %class.obj_hashtable.68, %class.obj_map.92, %class.obj_map.92, %class.ref_vector.97, %class.ptr_vector.40 }
%class.ref_vector.79 = type { %class.ref_vector_core.80 }
%class.ref_vector_core.80 = type { %class.ref_manager_wrapper.81, %class.ptr_vector.40 }
%class.ref_manager_wrapper.81 = type { ptr }
%class.obj_map.82 = type { %class.core_hashtable.83 }
%class.core_hashtable.83 = type <{ ptr, i32, i32, i32, [4 x i8] }>
%"class.datalog::rule_dependencies" = type { %class.obj_map.87, ptr, %class.ptr_vector.4, %class.expr_sparse_mark, %class.obj_hashtable.68 }
%class.obj_map.87 = type { %class.core_hashtable.88 }
%class.core_hashtable.88 = type <{ ptr, i32, i32, i32, [4 x i8] }>
%class.obj_map.92 = type { %class.core_hashtable.93 }
%class.core_hashtable.93 = type <{ ptr, i32, i32, i32, [4 x i8] }>
%class.ref_vector.97 = type { %class.ref_vector_core.98 }
%class.ref_vector_core.98 = type { %class.ref_manager_wrapper.99, %class.ptr_vector.100 }
%class.ref_manager_wrapper.99 = type { ptr }
%class.ptr_vector.100 = type { %class.vector.101 }
%class.vector.101 = type { ptr }

; Function Attrs: mustprogress nounwind uwtable
define linkonce_odr hidden noundef nonnull align 8 dereferenceable(8) ptr @_ZNK6vectorIPN7datalog4ruleELb0EjEixEj(ptr noundef nonnull align 8 dereferenceable(8) %0, i32 noundef %1) #5 comdat align 2 {
  %3 = alloca ptr, align 8
  %4 = alloca i32, align 4
  store ptr %0, ptr %3, align 8, !tbaa !370
  store i32 %1, ptr %4, align 4, !tbaa !10
  %5 = load ptr, ptr %3, align 8
  %6 = getelementptr inbounds nuw %class.vector.41, ptr %5, i32 0, i32 0
  %7 = load ptr, ptr %6, align 8, !tbaa !372
  %8 = load i32, ptr %4, align 4, !tbaa !10
  %9 = zext i32 %8 to i64
  %10 = getelementptr inbounds nuw ptr, ptr %7, i64 %9
  ret ptr %10
}

; Function Attrs: mustprogress uwtable
define linkonce_odr hidden noundef ptr @_ZNK15ref_vector_coreIN7datalog4ruleE19ref_manager_wrapperIS1_NS0_12rule_managerEEEixEj(ptr noundef nonnull align 8 dereferenceable(16) %0, i32 noundef %1) #4 comdat align 2 {
  %3 = alloca ptr, align 8
  %4 = alloca i32, align 4
  store ptr %0, ptr %3, align 8, !tbaa !373
  store i32 %1, ptr %4, align 4, !tbaa !10
  %5 = load ptr, ptr %3, align 8
  %6 = getelementptr inbounds nuw %class.ref_vector_core.80, ptr %5, i32 0, i32 1
  %7 = load i32, ptr %4, align 4, !tbaa !10
  %8 = call noundef nonnull align 8 dereferenceable(8) ptr @_ZNK6vectorIPN7datalog4ruleELb0EjEixEj(ptr noundef nonnull align 8 dereferenceable(8) %6, i32 noundef %7)
  %9 = load ptr, ptr %8, align 8, !tbaa !238
  ret ptr %9
}

; Function Attrs: mustprogress nounwind uwtable
define linkonce_odr hidden noundef i32 @_ZNK6vectorIPN7datalog4ruleELb0EjE4sizeEv(ptr noundef nonnull align 8 dereferenceable(8) %0) #5 comdat align 2 {
  %2 = alloca i32, align 4
  %3 = alloca ptr, align 8
  store ptr %0, ptr %3, align 8, !tbaa !370
  %4 = load ptr, ptr %3, align 8
  %5 = getelementptr inbounds nuw %class.vector.41, ptr %4, i32 0, i32 0
  %6 = load ptr, ptr %5, align 8, !tbaa !372
  %7 = icmp eq ptr %6, null
  br i1 %7, label %8, label %9

8:                                                ; preds = %1
  store i32 0, ptr %2, align 4
  br label %14

9:                                                ; preds = %1
  %10 = getelementptr inbounds nuw %class.vector.41, ptr %4, i32 0, i32 0
  %11 = load ptr, ptr %10, align 8, !tbaa !372
  %12 = getelementptr inbounds i32, ptr %11, i64 -1
  %13 = load i32, ptr %12, align 4, !tbaa !10
  store i32 %13, ptr %2, align 4
  br label %14

14:                                               ; preds = %9, %8
  %15 = load i32, ptr %2, align 4
  ret i32 %15
}

; Function Attrs: mustprogress nounwind uwtable
define linkonce_odr hidden noundef ptr @_ZNK6vectorIPN7datalog4ruleELb0EjE4dataEv(ptr noundef nonnull align 8 dereferenceable(8) %0) #5 comdat align 2 {
  %2 = alloca ptr, align 8
  store ptr %0, ptr %2, align 8, !tbaa !370
  %3 = load ptr, ptr %2, align 8
  %4 = getelementptr inbounds nuw %class.vector.41, ptr %3, i32 0, i32 0
  %5 = load ptr, ptr %4, align 8, !tbaa !372
  ret ptr %5
}

; Function Attrs: mustprogress uwtable
define linkonce_odr hidden noundef ptr @_ZNK10ref_vectorIN7datalog4ruleENS0_12rule_managerEEixEj(ptr noundef nonnull align 8 dereferenceable(16) %0, i32 noundef %1) #4 comdat align 2 {
  %3 = alloca ptr, align 8
  %4 = alloca i32, align 4
  store ptr %0, ptr %3, align 8, !tbaa !369
  store i32 %1, ptr %4, align 4, !tbaa !10
  %5 = load ptr, ptr %3, align 8
  %6 = load i32, ptr %4, align 4, !tbaa !10
  %7 = call noundef ptr @_ZNK15ref_vector_coreIN7datalog4ruleE19ref_manager_wrapperIS1_NS0_12rule_managerEEEixEj(ptr noundef nonnull align 8 dereferenceable(16) %5, i32 noundef %6)
  ret ptr %7
}

; Function Attrs: mustprogress uwtable
define linkonce_odr hidden void @_Z7deallocIN7datalog15rule_stratifierEEvPT_(ptr noundef %0) #4 comdat {
  %2 = alloca ptr, align 8
  store ptr %0, ptr %2, align 8, !tbaa !230
  %3 = load ptr, ptr %2, align 8, !tbaa !230
  %4 = icmp eq ptr %3, null
  br i1 %4, label %5, label %6

5:                                                ; preds = %1
  br label %9

6:                                                ; preds = %1
  %7 = load ptr, ptr %2, align 8, !tbaa !230
  call void @_ZN7datalog15rule_stratifierD1Ev(ptr noundef nonnull align 8 dereferenceable(120) %7) #3
  %8 = load ptr, ptr %2, align 8, !tbaa !230
  call void @_ZN6memory10deallocateEPv(ptr noundef %8)
  br label %9

9:                                                ; preds = %6, %5
  ret void
}

; Function Attrs: mustprogress uwtable
define linkonce_odr hidden void @_Z7deallocIN7datalog17rule_dependenciesEEvPT_(ptr noundef %0) #4 comdat {
  %2 = alloca ptr, align 8
  store ptr %0, ptr %2, align 8, !tbaa !224
  %3 = load ptr, ptr %2, align 8, !tbaa !224
  %4 = icmp eq ptr %3, null
  br i1 %4, label %5, label %6

5:                                                ; preds = %1
  br label %9

6:                                                ; preds = %1
  %7 = load ptr, ptr %2, align 8, !tbaa !224
  call void @_ZN7datalog17rule_dependenciesD1Ev(ptr noundef nonnull align 8 dereferenceable(88) %7) #3
  %8 = load ptr, ptr %2, align 8, !tbaa !224
  call void @_ZN6memory10deallocateEPv(ptr noundef %8)
  br label %9

9:                                                ; preds = %6, %5
  ret void
}

; Function Attrs: mustprogress nounwind uwtable
define linkonce_odr hidden noundef i32 @_ZNK15ref_vector_coreIN7datalog4ruleE19ref_manager_wrapperIS1_NS0_12rule_managerEEE4sizeEv(ptr noundef nonnull align 8 dereferenceable(16) %0) #5 comdat align 2 {
  %2 = alloca ptr, align 8
  store ptr %0, ptr %2, align 8, !tbaa !373
  %3 = load ptr, ptr %2, align 8
  %4 = getelementptr inbounds nuw %class.ref_vector_core.80, ptr %3, i32 0, i32 1
  %5 = call noundef i32 @_ZNK6vectorIPN7datalog4ruleELb0EjE4sizeEv(ptr noundef nonnull align 8 dereferenceable(8) %4)
  ret i32 %5
}

; Function Attrs: mustprogress nounwind uwtable
define linkonce_odr hidden noundef ptr @_ZNK15ref_vector_coreIN7datalog4ruleE19ref_manager_wrapperIS1_NS0_12rule_managerEEE4dataEv(ptr noundef nonnull align 8 dereferenceable(16) %0) #5 comdat align 2 {
  %2 = alloca ptr, align 8
  store ptr %0, ptr %2, align 8, !tbaa !373
  %3 = load ptr, ptr %2, align 8
  %4 = getelementptr inbounds nuw %class.ref_vector_core.80, ptr %3, i32 0, i32 1
  %5 = call noundef ptr @_ZNK6vectorIPN7datalog4ruleELb0EjE4dataEv(ptr noundef nonnull align 8 dereferenceable(8) %4)
  ret ptr %5
}

; Function Attrs: mustprogress uwtable
define linkonce_odr hidden noundef ptr @_ZNK7datalog8rule_set8get_ruleEj(ptr noundef nonnull align 8 dereferenceable(248) %0, i32 noundef %1) #4 comdat align 2 {
  %3 = alloca ptr, align 8
  %4 = alloca i32, align 4
  store ptr %0, ptr %3, align 8, !tbaa !317
  store i32 %1, ptr %4, align 4, !tbaa !10
  %5 = load ptr, ptr %3, align 8
  %6 = getelementptr inbounds nuw %"class.datalog::rule_set", ptr %5, i32 0, i32 2
  %7 = load i32, ptr %4, align 4, !tbaa !10
  %8 = call noundef ptr @_ZNK10ref_vectorIN7datalog4ruleENS0_12rule_managerEEixEj(ptr noundef nonnull align 8 dereferenceable(16) %6, i32 noundef %7)
  ret ptr %8
}

; Function Attrs: mustprogress uwtable
define linkonce_odr hidden noundef i32 @_ZNK7datalog8rule_set13get_num_rulesEv(ptr noundef nonnull align 8 dereferenceable(248) %0) #4 comdat align 2 {
  %2 = alloca ptr, align 8
  store ptr %0, ptr %2, align 8, !tbaa !317
  %3 = load ptr, ptr %2, align 8
  %4 = getelementptr inbounds nuw %"class.datalog::rule_set", ptr %3, i32 0, i32 2
  %5 = call noundef i32 @_ZNK15ref_vector_coreIN7datalog4ruleE19ref_manager_wrapperIS1_NS0_12rule_managerEEE4sizeEv(ptr noundef nonnull align 8 dereferenceable(16) %4)
  ret i32 %5
}

; Function Attrs: mustprogress uwtable
define linkonce_odr hidden noundef nonnull align 8 dereferenceable(8) ptr @_ZN10scoped_ptrIN7datalog15rule_stratifierEEaSEPS1_(ptr noundef nonnull align 8 dereferenceable(8) %0, ptr noundef %1) #4 comdat align 2 {
  %3 = alloca ptr, align 8
  %4 = alloca ptr, align 8
  store ptr %0, ptr %3, align 8, !tbaa !228
  store ptr %1, ptr %4, align 8, !tbaa !230
  %5 = load ptr, ptr %3, align 8
  %6 = getelementptr inbounds nuw %class.scoped_ptr.0, ptr %5, i32 0, i32 0
  %7 = load ptr, ptr %6, align 8, !tbaa !231
  %8 = load ptr, ptr %4, align 8, !tbaa !230
  %9 = icmp ne ptr %7, %8
  br i1 %9, label %10, label %15

10:                                               ; preds = %2
  %11 = getelementptr inbounds nuw %class.scoped_ptr.0, ptr %5, i32 0, i32 0
  %12 = load ptr, ptr %11, align 8, !tbaa !231
  call void @_Z7deallocIN7datalog15rule_stratifierEEvPT_(ptr noundef %12)
  %13 = load ptr, ptr %4, align 8, !tbaa !230
  %14 = getelementptr inbounds nuw %class.scoped_ptr.0, ptr %5, i32 0, i32 0
  store ptr %13, ptr %14, align 8, !tbaa !231
  br label %15

15:                                               ; preds = %10, %2
  ret ptr %5
}

; Function Attrs: mustprogress nounwind uwtable
define linkonce_odr hidden noundef nonnull align 8 dereferenceable(88) ptr @_ZN10scoped_ptrIN7datalog17rule_dependenciesEEdeEv(ptr noundef nonnull align 8 dereferenceable(8) %0) #5 comdat align 2 {
  %2 = alloca ptr, align 8
  store ptr %0, ptr %2, align 8, !tbaa !222
  %3 = load ptr, ptr %2, align 8
  %4 = getelementptr inbounds nuw %class.scoped_ptr, ptr %3, i32 0, i32 0
  %5 = load ptr, ptr %4, align 8, !tbaa !226
  ret ptr %5
}

; Function Attrs: mustprogress nounwind uwtable
define linkonce_odr hidden noundef ptr @_ZNK10scoped_ptrIN7datalog17rule_dependenciesEEptEv(ptr noundef nonnull align 8 dereferenceable(8) %0) #5 comdat align 2 {
  %2 = alloca ptr, align 8
  store ptr %0, ptr %2, align 8, !tbaa !222
  %3 = load ptr, ptr %2, align 8
  %4 = getelementptr inbounds nuw %class.scoped_ptr, ptr %3, i32 0, i32 0
  %5 = load ptr, ptr %4, align 8, !tbaa !226
  ret ptr %5
}

; Function Attrs: mustprogress uwtable
define linkonce_odr hidden noundef nonnull align 8 dereferenceable(8) ptr @_ZN10scoped_ptrIN7datalog17rule_dependenciesEEaSEPS1_(ptr noundef nonnull align 8 dereferenceable(8) %0, ptr noundef %1) #4 comdat align 2 {
  %3 = alloca ptr, align 8
  %4 = alloca ptr, align 8
  store ptr %0, ptr %3, align 8, !tbaa !222
  store ptr %1, ptr %4, align 8, !tbaa !224
  %5 = load ptr, ptr %3, align 8
  %6 = getelementptr inbounds nuw %class.scoped_ptr, ptr %5, i32 0, i32 0
  %7 = load ptr, ptr %6, align 8, !tbaa !226
  %8 = load ptr, ptr %4, align 8, !tbaa !224
  %9 = icmp ne ptr %7, %8
  br i1 %9, label %10, label %15

10:                                               ; preds = %2
  %11 = getelementptr inbounds nuw %class.scoped_ptr, ptr %5, i32 0, i32 0
  %12 = load ptr, ptr %11, align 8, !tbaa !226
  call void @_Z7deallocIN7datalog17rule_dependenciesEEvPT_(ptr noundef %12)
  %13 = load ptr, ptr %4, align 8, !tbaa !224
  %14 = getelementptr inbounds nuw %class.scoped_ptr, ptr %5, i32 0, i32 0
  store ptr %13, ptr %14, align 8, !tbaa !226
  br label %15

15:                                               ; preds = %10, %2
  ret ptr %5
}

; Function Attrs: mustprogress uwtable
define linkonce_odr hidden noundef ptr @_ZNK7datalog8rule_set3endEv(ptr noundef nonnull align 8 dereferenceable(248) %0) #4 comdat align 2 {
  %2 = alloca ptr, align 8
  store ptr %0, ptr %2, align 8, !tbaa !317
  %3 = load ptr, ptr %2, align 8
  %4 = getelementptr inbounds nuw %"class.datalog::rule_set", ptr %3, i32 0, i32 2
  %5 = call noundef ptr @_ZNK15ref_vector_coreIN7datalog4ruleE19ref_manager_wrapperIS1_NS0_12rule_managerEEE4dataEv(ptr noundef nonnull align 8 dereferenceable(16) %4)
  %6 = getelementptr inbounds nuw %"class.datalog::rule_set", ptr %3, i32 0, i32 2
  %7 = call noundef i32 @_ZNK15ref_vector_coreIN7datalog4ruleE19ref_manager_wrapperIS1_NS0_12rule_managerEEE4sizeEv(ptr noundef nonnull align 8 dereferenceable(16) %6)
  %8 = zext i32 %7 to i64
  %9 = getelementptr inbounds nuw ptr, ptr %5, i64 %8
  ret ptr %9
}

; Function Attrs: mustprogress uwtable
define linkonce_odr hidden noundef ptr @_ZNK7datalog8rule_set5beginEv(ptr noundef nonnull align 8 dereferenceable(248) %0) #4 comdat align 2 {
  %2 = alloca ptr, align 8
  store ptr %0, ptr %2, align 8, !tbaa !317
  %3 = load ptr, ptr %2, align 8
  %4 = getelementptr inbounds nuw %"class.datalog::rule_set", ptr %3, i32 0, i32 2
  %5 = call noundef ptr @_ZNK15ref_vector_coreIN7datalog4ruleE19ref_manager_wrapperIS1_NS0_12rule_managerEEE4dataEv(ptr noundef nonnull align 8 dereferenceable(16) %4)
  ret ptr %5
}

; Function Attrs: mustprogress uwtable
define hidden noundef ptr @_ZN7datalog14mk_synchronizeclERKNS_8rule_setE(ptr noundef nonnull align 8 dereferenceable(88) %0, ptr noundef nonnull align 8 dereferenceable(248) %1) unnamed_addr #4 align 2 {
  %3 = alloca ptr, align 8
  %4 = alloca ptr, align 8
  %5 = alloca ptr, align 8
  %6 = alloca ptr, align 8
  %7 = alloca ptr, align 8
  %8 = alloca ptr, align 8
  %9 = alloca ptr, align 8
  %10 = alloca i32, align 4
  %11 = alloca ptr, align 8
  store ptr %0, ptr %3, align 8, !tbaa !3
  store ptr %1, ptr %4, align 8, !tbaa !317
  %12 = load ptr, ptr %3, align 8
  call void @llvm.lifetime.start.p0(i64 8, ptr %5) #3
  %13 = call noalias noundef ptr @_ZN6memory8allocateEm(i64 noundef 248)
  %14 = getelementptr inbounds nuw %"class.datalog::mk_synchronize", ptr %12, i32 0, i32 1
  %15 = load ptr, ptr %14, align 8, !tbaa !278
  call void @_ZN7datalog8rule_setC1ERNS_7contextE(ptr noundef nonnull align 8 dereferenceable(248) %13, ptr noundef nonnull align 8 dereferenceable(3028) %15)
  store ptr %13, ptr %5, align 8, !tbaa !317
  %16 = load ptr, ptr %5, align 8, !tbaa !317
  %17 = load ptr, ptr %4, align 8, !tbaa !317
  call void @_ZN7datalog8rule_set18inherit_predicatesERKS0_(ptr noundef nonnull align 8 dereferenceable(248) %16, ptr noundef nonnull align 8 dereferenceable(248) %17)
  call void @llvm.lifetime.start.p0(i64 8, ptr %6) #3
  %18 = load ptr, ptr %4, align 8, !tbaa !317
  store ptr %18, ptr %6, align 8, !tbaa !317
  call void @llvm.lifetime.start.p0(i64 8, ptr %7) #3
  %19 = load ptr, ptr %6, align 8, !tbaa !317
  %20 = call noundef ptr @_ZNK7datalog8rule_set5beginEv(ptr noundef nonnull align 8 dereferenceable(248) %19)
  store ptr %20, ptr %7, align 8, !tbaa !363
  call void @llvm.lifetime.start.p0(i64 8, ptr %8) #3
  %21 = load ptr, ptr %6, align 8, !tbaa !317
  %22 = call noundef ptr @_ZNK7datalog8rule_set3endEv(ptr noundef nonnull align 8 dereferenceable(248) %21)
  store ptr %22, ptr %8, align 8, !tbaa !363
  br label %23

23:                                               ; preds = %33, %2
  %24 = load ptr, ptr %7, align 8, !tbaa !363
  %25 = load ptr, ptr %8, align 8, !tbaa !363
  %26 = icmp ne ptr %24, %25
  br i1 %26, label %28, label %27

27:                                               ; preds = %23
  call void @llvm.lifetime.end.p0(i64 8, ptr %8) #3
  call void @llvm.lifetime.end.p0(i64 8, ptr %7) #3
  call void @llvm.lifetime.end.p0(i64 8, ptr %6) #3
  br label %36

28:                                               ; preds = %23
  call void @llvm.lifetime.start.p0(i64 8, ptr %9) #3
  %29 = load ptr, ptr %7, align 8, !tbaa !363
  %30 = load ptr, ptr %29, align 8, !tbaa !238
  store ptr %30, ptr %9, align 8, !tbaa !238
  %31 = load ptr, ptr %5, align 8, !tbaa !317
  %32 = load ptr, ptr %9, align 8, !tbaa !238
  call void @_ZN7datalog8rule_set8add_ruleEPNS_4ruleE(ptr noundef nonnull align 8 dereferenceable(248) %31, ptr noundef %32)
  call void @llvm.lifetime.end.p0(i64 8, ptr %9) #3
  br label %33

33:                                               ; preds = %28
  %34 = load ptr, ptr %7, align 8, !tbaa !363
  %35 = getelementptr inbounds nuw ptr, ptr %34, i32 1
  store ptr %35, ptr %7, align 8, !tbaa !363
  br label %23

36:                                               ; preds = %27
  %37 = call noalias noundef ptr @_ZN6memory8allocateEm(i64 noundef 88)
  %38 = getelementptr inbounds nuw %"class.datalog::mk_synchronize", ptr %12, i32 0, i32 1
  %39 = load ptr, ptr %38, align 8, !tbaa !278
  call void @_ZN7datalog17rule_dependenciesC1ERNS_7contextE(ptr noundef nonnull align 8 dereferenceable(88) %37, ptr noundef nonnull align 8 dereferenceable(3028) %39)
  %40 = getelementptr inbounds nuw %"class.datalog::mk_synchronize", ptr %12, i32 0, i32 4
  %41 = call noundef nonnull align 8 dereferenceable(8) ptr @_ZN10scoped_ptrIN7datalog17rule_dependenciesEEaSEPS1_(ptr noundef nonnull align 8 dereferenceable(8) %40, ptr noundef %37)
  %42 = getelementptr inbounds nuw %"class.datalog::mk_synchronize", ptr %12, i32 0, i32 4
  %43 = call noundef ptr @_ZNK10scoped_ptrIN7datalog17rule_dependenciesEEptEv(ptr noundef nonnull align 8 dereferenceable(8) %42)
  %44 = load ptr, ptr %5, align 8, !tbaa !317
  call void @_ZN7datalog17rule_dependencies8populateERKNS_8rule_setE(ptr noundef nonnull align 8 dereferenceable(88) %43, ptr noundef nonnull align 8 dereferenceable(248) %44)
  %45 = call noalias noundef ptr @_ZN6memory8allocateEm(i64 noundef 120)
  %46 = getelementptr inbounds nuw %"class.datalog::mk_synchronize", ptr %12, i32 0, i32 4
  %47 = call noundef nonnull align 8 dereferenceable(88) ptr @_ZN10scoped_ptrIN7datalog17rule_dependenciesEEdeEv(ptr noundef nonnull align 8 dereferenceable(8) %46)
  call void @_ZN7datalog15rule_stratifierC2ERKNS_17rule_dependenciesE(ptr noundef nonnull align 8 dereferenceable(120) %45, ptr noundef nonnull align 8 dereferenceable(88) %47)
  %48 = getelementptr inbounds nuw %"class.datalog::mk_synchronize", ptr %12, i32 0, i32 5
  %49 = call noundef nonnull align 8 dereferenceable(8) ptr @_ZN10scoped_ptrIN7datalog15rule_stratifierEEaSEPS1_(ptr noundef nonnull align 8 dereferenceable(8) %48, ptr noundef %45)
  call void @llvm.lifetime.start.p0(i64 4, ptr %10) #3
  store i32 0, ptr %10, align 4, !tbaa !10
  br label %50

50:                                               ; preds = %55, %36
  %51 = load i32, ptr %10, align 4, !tbaa !10
  %52 = load ptr, ptr %5, align 8, !tbaa !317
  %53 = call noundef i32 @_ZNK7datalog8rule_set13get_num_rulesEv(ptr noundef nonnull align 8 dereferenceable(248) %52)
  %54 = icmp ult i32 %51, %53
  br i1 %54, label %55, label %63

55:                                               ; preds = %50
  call void @llvm.lifetime.start.p0(i64 8, ptr %11) #3
  %56 = load ptr, ptr %5, align 8, !tbaa !317
  %57 = load i32, ptr %10, align 4, !tbaa !10
  %58 = call noundef ptr @_ZNK7datalog8rule_set8get_ruleEj(ptr noundef nonnull align 8 dereferenceable(248) %56, i32 noundef %57)
  store ptr %58, ptr %11, align 8, !tbaa !238
  %59 = load ptr, ptr %11, align 8, !tbaa !238
  %60 = load ptr, ptr %5, align 8, !tbaa !317
  call void @_ZN7datalog14mk_synchronize18merge_applicationsERNS_4ruleERNS_8rule_setE(ptr noundef nonnull align 8 dereferenceable(88) %12, ptr noundef nonnull align 8 dereferenceable(80) %59, ptr noundef nonnull align 8 dereferenceable(248) %60)
  %61 = load i32, ptr %10, align 4, !tbaa !10
  %62 = add i32 %61, 1
  store i32 %62, ptr %10, align 4, !tbaa !10
  call void @llvm.lifetime.end.p0(i64 8, ptr %11) #3
  br label %50, !llvm.loop !438

63:                                               ; preds = %50
  %64 = load ptr, ptr %5, align 8, !tbaa !317
  call void @llvm.lifetime.end.p0(i64 4, ptr %10) #3
  call void @llvm.lifetime.end.p0(i64 8, ptr %5) #3
  ret ptr %64
}