; Function Attrs: mustprogress uwtable
define hidden noundef ptr @_ZN7datalog14mk_synchronizeclERKNS_8rule_setE(ptr noundef nonnull align 8 dereferenceable(88) %0, ptr noundef nonnull align 8 dereferenceable(248) %1) unnamed_addr #3 align 2 {
  %3 = tail call noalias noundef ptr @_ZN6memory8allocateEm(i64 noundef 248)
  %4 = getelementptr inbounds nuw i8, ptr %0, i64 24
  %5 = load ptr, ptr %4, align 8, !tbaa !283
  tail call void @_ZN7datalog8rule_setC1ERNS_7contextE(ptr noundef nonnull align 8 dereferenceable(248) %3, ptr noundef nonnull align 8 dereferenceable(3028) %5)
  tail call void @_ZN7datalog8rule_set18inherit_predicatesERKS0_(ptr noundef nonnull align 8 dereferenceable(248) %3, ptr noundef nonnull align 8 dereferenceable(248) %1)
  %6 = getelementptr inbounds nuw i8, ptr %1, i64 24
  %7 = load ptr, ptr %6, align 8, !tbaa !314
  %8 = icmp eq ptr %7, null
  br i1 %8, label %._crit_edge, label %_ZNK7datalog8rule_set3endEv.exit

_ZNK7datalog8rule_set3endEv.exit:                 ; preds = %2
  %9 = getelementptr inbounds i8, ptr %7, i64 -4
  %10 = load i32, ptr %9, align 4, !tbaa !247
  %11 = zext i32 %10 to i64
  %12 = getelementptr inbounds nuw ptr, ptr %7, i64 %11
  %.not23 = icmp eq i32 %10, 0
  br i1 %.not23, label %._crit_edge, label %.lr.ph

._crit_edge:                                      ; preds = %.lr.ph, %2, %_ZNK7datalog8rule_set3endEv.exit
  %13 = tail call noalias noundef ptr @_ZN6memory8allocateEm(i64 noundef 88)
  %14 = load ptr, ptr %4, align 8, !tbaa !283
  tail call void @_ZN7datalog17rule_dependenciesC1ERNS_7contextE(ptr noundef nonnull align 8 dereferenceable(88) %13, ptr noundef nonnull align 8 dereferenceable(3028) %14)
  %15 = getelementptr inbounds nuw i8, ptr %0, i64 48
  %16 = load ptr, ptr %15, align 8, !tbaa !221
  %.not.i = icmp eq ptr %16, %13
  br i1 %.not.i, label %_ZN10scoped_ptrIN7datalog17rule_dependenciesEEaSEPS1_.exit, label %17

17:                                               ; preds = %._crit_edge
  %18 = icmp eq ptr %16, null
  br i1 %18, label %_Z7deallocIN7datalog17rule_dependenciesEEvPT_.exit.i, label %19

19:                                               ; preds = %17
  tail call void @_ZN7datalog17rule_dependenciesD1Ev(ptr noundef nonnull align 8 dereferenceable(88) %16) #20
  tail call void @_ZN6memory10deallocateEPv(ptr noundef nonnull %16)
  br label %_Z7deallocIN7datalog17rule_dependenciesEEvPT_.exit.i

_Z7deallocIN7datalog17rule_dependenciesEEvPT_.exit.i: ; preds = %19, %17
  store ptr %13, ptr %15, align 8, !tbaa !221
  br label %_ZN10scoped_ptrIN7datalog17rule_dependenciesEEaSEPS1_.exit

_ZN10scoped_ptrIN7datalog17rule_dependenciesEEaSEPS1_.exit: ; preds = %._crit_edge, %_Z7deallocIN7datalog17rule_dependenciesEEvPT_.exit.i
  %20 = phi ptr [ %16, %._crit_edge ], [ %13, %_Z7deallocIN7datalog17rule_dependenciesEEvPT_.exit.i ]
  tail call void @_ZN7datalog17rule_dependencies8populateERKNS_8rule_setE(ptr noundef nonnull align 8 dereferenceable(88) %20, ptr noundef nonnull align 8 dereferenceable(248) %3)
  %21 = tail call noalias noundef ptr @_ZN6memory8allocateEm(i64 noundef 120)
  %22 = load ptr, ptr %15, align 8, !tbaa !221
  tail call void @_ZN7datalog15rule_stratifierC2ERKNS_17rule_dependenciesE(ptr noundef nonnull align 8 dereferenceable(120) %21, ptr noundef nonnull align 8 dereferenceable(88) %22)
  %23 = getelementptr inbounds nuw i8, ptr %0, i64 56
  %24 = load ptr, ptr %23, align 8, !tbaa !220
  %.not.i21 = icmp eq ptr %24, %21
  br i1 %.not.i21, label %_ZN10scoped_ptrIN7datalog15rule_stratifierEEaSEPS1_.exit, label %25

25:                                               ; preds = %_ZN10scoped_ptrIN7datalog17rule_dependenciesEEaSEPS1_.exit
  %26 = icmp eq ptr %24, null
  br i1 %26, label %_Z7deallocIN7datalog15rule_stratifierEEvPT_.exit.i, label %27

27:                                               ; preds = %25
  tail call void @_ZN7datalog15rule_stratifierD1Ev(ptr noundef nonnull align 8 dereferenceable(120) %24) #20
  tail call void @_ZN6memory10deallocateEPv(ptr noundef nonnull %24)
  br label %_Z7deallocIN7datalog15rule_stratifierEEvPT_.exit.i

_Z7deallocIN7datalog15rule_stratifierEEvPT_.exit.i: ; preds = %27, %25
  store ptr %21, ptr %23, align 8, !tbaa !220
  br label %_ZN10scoped_ptrIN7datalog15rule_stratifierEEaSEPS1_.exit

_ZN10scoped_ptrIN7datalog15rule_stratifierEEaSEPS1_.exit: ; preds = %_ZN10scoped_ptrIN7datalog17rule_dependenciesEEaSEPS1_.exit, %_Z7deallocIN7datalog15rule_stratifierEEvPT_.exit.i
  %28 = getelementptr inbounds nuw i8, ptr %3, i64 24
  br label %31

.lr.ph:                                           ; preds = %_ZNK7datalog8rule_set3endEv.exit, %.lr.ph
  %.024 = phi ptr [ %30, %.lr.ph ], [ %7, %_ZNK7datalog8rule_set3endEv.exit ]
  %29 = load ptr, ptr %.024, align 8, !tbaa !315
  tail call void @_ZN7datalog8rule_set8add_ruleEPNS_4ruleE(ptr noundef nonnull align 8 dereferenceable(248) %3, ptr noundef %29)
  %30 = getelementptr inbounds nuw i8, ptr %.024, i64 8
  %.not = icmp eq ptr %30, %12
  br i1 %.not, label %._crit_edge, label %.lr.ph

31:                                               ; preds = %39, %_ZN10scoped_ptrIN7datalog15rule_stratifierEEaSEPS1_.exit
  %indvars.iv = phi i64 [ %indvars.iv.next, %39 ], [ 0, %_ZN10scoped_ptrIN7datalog15rule_stratifierEEaSEPS1_.exit ]
  %32 = load ptr, ptr %28, align 8, !tbaa !314
  %33 = icmp eq ptr %32, null
  br i1 %33, label %_ZNK7datalog8rule_set13get_num_rulesEv.exit, label %34

34:                                               ; preds = %31
  %35 = getelementptr inbounds i8, ptr %32, i64 -4
  %36 = load i32, ptr %35, align 4, !tbaa !247
  %37 = zext i32 %36 to i64
  br label %_ZNK7datalog8rule_set13get_num_rulesEv.exit

_ZNK7datalog8rule_set13get_num_rulesEv.exit:      ; preds = %31, %34
  %.0.i.i.i22 = phi i64 [ %37, %34 ], [ 0, %31 ]
  %38 = icmp samesign ult i64 %indvars.iv, %.0.i.i.i22
  br i1 %38, label %39, label %42

39:                                               ; preds = %_ZNK7datalog8rule_set13get_num_rulesEv.exit
  %40 = getelementptr inbounds nuw ptr, ptr %32, i64 %indvars.iv
  %41 = load ptr, ptr %40, align 8, !tbaa !315
  tail call void @_ZN7datalog14mk_synchronize18merge_applicationsERNS_4ruleERNS_8rule_setE(ptr noundef nonnull align 8 dereferenceable(88) %0, ptr noundef nonnull align 8 dereferenceable(80) %41, ptr noundef nonnull align 8 dereferenceable(248) %3)
  %indvars.iv.next = add nuw nsw i64 %indvars.iv, 1
  br label %31, !llvm.loop !366

42:                                               ; preds = %_ZNK7datalog8rule_set13get_num_rulesEv.exit
  ret ptr %3
}